; Function Attrs: mustprogress nofree norecurse nosync nounwind willreturn memory(none) uwtable
define dso_local ptr @ZSTD_selectBlockCompressor(i32 noundef %0, i32 noundef %1, i32 noundef %2) local_unnamed_addr #0 {
  %4 = add i32 %0, -3
  %5 = icmp ugt i32 %4, 2
  %6 = icmp ne i32 %1, 1
  %.not8 = or i1 %5, %6
  %7 = sext i32 %2 to i64
  %8 = zext nneg i32 %4 to i64
  %9 = getelementptr inbounds [4 x [3 x ptr]], ptr @ZSTD_selectBlockCompressor.rowBasedBlockCompressors, i64 0, i64 %7, i64 %8
  %10 = sext i32 %0 to i64
  %11 = getelementptr inbounds [4 x [10 x ptr]], ptr @ZSTD_selectBlockCompressor.blockCompressor, i64 0, i64 %7, i64 %10
  %.0.in = select i1 %.not8, ptr %11, ptr %9
  %.0 = load ptr, ptr %.0.in, align 8
  ret ptr %.0
}